; Function Attrs: mustprogress nounwind uwtable
define dso_local void @_ZN4absl12log_internal17ScopedMinLogLevelD2Ev(ptr noundef nonnull readonly align 4 captures(none) dereferenceable(4) %0) unnamed_addr #2 align 2 personality ptr @__gxx_personality_v0 {
  %2 = load i32, ptr %0, align 4, !tbaa !11
  store atomic i32 %2, ptr @_ZN4absl12_GLOBAL__N_113min_log_levelE.0 release, align 4
  %3 = load atomic i64, ptr @_ZN4absl12_GLOBAL__N_124logging_globals_listenerE acquire, align 8
  %4 = icmp eq i64 %3, ptrtoint (ptr @_ZN4absl13base_internal10AtomicHookIPFvvEE13DummyFunctionEv to i64)
  %.not2.i.i = icmp eq i64 %3, 0
  %.not.i.i = or i1 %4, %.not2.i.i
  br i1 %.not.i.i, label %_ZN4absl14SetMinLogLevelENS_18LogSeverityAtLeastE.exit, label %5

5:                                                ; preds = %1
  %.0.i.i.i.i.i.i = inttoptr i64 %3 to ptr
  invoke void %.0.i.i.i.i.i.i()
          to label %_ZN4absl14SetMinLogLevelENS_18LogSeverityAtLeastE.exit unwind label %6

_ZN4absl14SetMinLogLevelENS_18LogSeverityAtLeastE.exit: ; preds = %1, %5
  ret void

6:                                                ; preds = %5
  %7 = landingpad { ptr, i32 }
          catch ptr null
  %8 = extractvalue { ptr, i32 } %7, 0
  tail call void @__clang_call_terminate(ptr %8) #15
  unreachable
}